target datalayout = "e-m:e-p270:32:32-p271:32:32-p272:64:64-i64:64-i128:128-f80:128-n8:16:32:64-S128"
target triple = "x86_64-pc-linux-gnu"

@.str.1 = private unnamed_addr constant [10 x i8] c"isobus.vt\00", align 1
@.str.496 = private unnamed_addr constant [24 x i8] c"ISObus Virtual Terminal\00", align 1
@.str.497 = private unnamed_addr constant [10 x i8] c"ISObus VT\00", align 1
@proto_vt = internal global i32 0, align 4
@.str.498 = private unnamed_addr constant [11 x i8] c"object_ids\00", align 1
@.str.499 = private unnamed_addr constant [22 x i8] c"Object ID Translation\00", align 1
@.str.500 = private unnamed_addr constant [55 x i8] c"File containing a translation from object ID to string\00", align 1
@object_id_translation = internal global ptr @.str.737, align 8

; Function Attrs: null_pointer_is_valid sspstrong uwtable
define hidden void @proto_register_isobus_vt() #0 {
  %1 = alloca ptr, align 8
  call void @llvm.lifetime.start.p0(i64 8, ptr %1) #5
  call void @register_init_routine(ptr noundef @isobus_vt_init)
  %2 = call i32 @proto_register_protocol(ptr noundef @.str.496, ptr noundef @.str.497, ptr noundef @.str.1)
  store i32 %2, ptr @proto_vt, align 4
  %3 = load i32, ptr @proto_vt, align 4
  call void @proto_register_field_array(i32 noundef %3, ptr noundef @proto_register_isobus_vt.hf, i32 noundef 314)
  call void @proto_register_subtree_array(ptr noundef @proto_register_isobus_vt.ett, i32 noundef 13)
  %4 = load i32, ptr @proto_vt, align 4
  %5 = call ptr @prefs_register_protocol(i32 noundef %4, ptr noundef null)
  store ptr %5, ptr %1, align 8
  %6 = load ptr, ptr %1, align 8
  call void @prefs_register_filename_preference(ptr noundef %6, ptr noundef @.str.498, ptr noundef @.str.499, ptr noundef @.str.500, ptr noundef @object_id_translation, i1 noundef zeroext false)
  call void @llvm.lifetime.end.p0(i64 8, ptr %1) #5
  ret void
}