; Function Attrs: null_pointer_is_valid sspstrong uwtable
define hidden void @proto_register_isobus_vt() local_unnamed_addr #0 {
  tail call void @register_init_routine(ptr noundef nonnull @isobus_vt_init)
  %1 = tail call i32 @proto_register_protocol(ptr noundef nonnull @.str.496, ptr noundef nonnull @.str.497, ptr noundef nonnull @.str.1)
  store i32 %1, ptr @proto_vt, align 4
  tail call void @proto_register_field_array(i32 noundef %1, ptr noundef nonnull @proto_register_isobus_vt.hf, i32 noundef 314)
  tail call void @proto_register_subtree_array(ptr noundef nonnull @proto_register_isobus_vt.ett, i32 noundef 13)
  %2 = load i32, ptr @proto_vt, align 4
  %3 = tail call ptr @prefs_register_protocol(i32 noundef %2, ptr noundef null)
  tail call void @prefs_register_filename_preference(ptr noundef %3, ptr noundef nonnull @.str.498, ptr noundef nonnull @.str.499, ptr noundef nonnull @.str.500, ptr noundef nonnull @object_id_translation, i1 noundef zeroext false)
  ret void
}